target datalayout = "e-m:e-p270:32:32-p271:32:32-p272:64:64-i64:64-i128:128-f80:128-n8:16:32:64-S128"
target triple = "x86_64-pc-linux-gnu"

%struct.TValue = type { %union.Value, i8 }
%union.Value = type { ptr }

; Function Attrs: noreturn nounwind uwtable
define hidden void @luaG_opinterror(ptr noundef %0, ptr noundef %1, ptr noundef %2, ptr noundef %3) #5 {
  %5 = alloca ptr, align 8
  %6 = alloca ptr, align 8
  %7 = alloca ptr, align 8
  %8 = alloca ptr, align 8
  store ptr %0, ptr %5, align 8, !tbaa !30
  store ptr %1, ptr %6, align 8, !tbaa !64
  store ptr %2, ptr %7, align 8, !tbaa !64
  store ptr %3, ptr %8, align 8, !tbaa !58
  %9 = load ptr, ptr %6, align 8, !tbaa !64
  %10 = getelementptr inbounds nuw %struct.TValue, ptr %9, i32 0, i32 1
  %11 = load i8, ptr %10, align 8, !tbaa !66
  %12 = zext i8 %11 to i32
  %13 = and i32 %12, 15
  %14 = icmp eq i32 %13, 3
  br i1 %14, label %17, label %15

15:                                               ; preds = %4
  %16 = load ptr, ptr %6, align 8, !tbaa !64
  store ptr %16, ptr %7, align 8, !tbaa !64
  br label %17

17:                                               ; preds = %15, %4
  %18 = load ptr, ptr %5, align 8, !tbaa !30
  %19 = load ptr, ptr %7, align 8, !tbaa !64
  %20 = load ptr, ptr %8, align 8, !tbaa !58
  call void @luaG_typeerror(ptr noundef %18, ptr noundef %19, ptr noundef %20) #10
  unreachable
}