; Function Attrs: noreturn nounwind uwtable
define hidden void @luaG_opinterror(ptr noundef %0, ptr noundef %1, ptr noundef %2, ptr noundef %3) local_unnamed_addr #9 {
  %5 = getelementptr inbounds nuw i8, ptr %1, i64 8
  %6 = load i8, ptr %5, align 8, !tbaa !53
  %7 = and i8 %6, 15
  %8 = icmp eq i8 %7, 3
  %spec.select = select i1 %8, ptr %2, ptr %1
  tail call void @luaG_typeerror(ptr noundef %0, ptr noundef %spec.select, ptr noundef %3) #15
  unreachable
}